; Function Attrs: nofree norecurse nosync nounwind memory(argmem: readwrite) uwtable
define internal void @put_chroma_v_8(ptr noundef writeonly captures(none) %0, ptr noundef readonly captures(none) %1, i64 noundef %2, i32 noundef %3, ptr readnone captures(none) %4, ptr noundef readonly captures(none) %5, i32 noundef %6) #2 {
  %8 = icmp sgt i32 %3, 0
  br i1 %8, label %.preheader.lr.ph, label %._crit_edge35

.preheader.lr.ph:                                 ; preds = %7
  %9 = icmp sgt i32 %6, 0
  %10 = getelementptr inbounds nuw i8, ptr %5, i64 1
  %11 = getelementptr inbounds nuw i8, ptr %5, i64 2
  %12 = getelementptr inbounds nuw i8, ptr %5, i64 3
  %13 = shl nsw i64 %2, 1
  br i1 %9, label %.preheader.us.preheader, label %._crit_edge35

.preheader.us.preheader:                          ; preds = %.preheader.lr.ph
  %wide.trip.count = zext nneg i32 %6 to i64
  br label %.preheader.us

.preheader.us:                                    ; preds = %.preheader.us.preheader, %._crit_edge.us
  %.02834.us = phi i32 [ %47, %._crit_edge.us ], [ 0, %.preheader.us.preheader ]
  %.02933.us = phi ptr [ %46, %._crit_edge.us ], [ %0, %.preheader.us.preheader ]
  %.03032.us = phi ptr [ %14, %._crit_edge.us ], [ %1, %.preheader.us.preheader ]
  %14 = getelementptr i8, ptr %.03032.us, i64 %2
  %15 = getelementptr i8, ptr %.03032.us, i64 %13
  br label %16

16:                                               ; preds = %.preheader.us, %16
  %indvars.iv = phi i64 [ 0, %.preheader.us ], [ %indvars.iv.next, %16 ]
  %17 = load i8, ptr %5, align 1, !tbaa !128
  %18 = sext i8 %17 to i16
  %19 = sub nsw i64 %indvars.iv, %2
  %20 = getelementptr inbounds i8, ptr %.03032.us, i64 %19
  %21 = load i8, ptr %20, align 1, !tbaa !128
  %22 = zext i8 %21 to i16
  %23 = mul nsw i16 %22, %18
  %24 = load i8, ptr %10, align 1, !tbaa !128
  %25 = sext i8 %24 to i16
  %26 = getelementptr inbounds nuw i8, ptr %.03032.us, i64 %indvars.iv
  %27 = load i8, ptr %26, align 1, !tbaa !128
  %28 = zext i8 %27 to i16
  %29 = mul nsw i16 %28, %25
  %30 = add i16 %29, %23
  %31 = load i8, ptr %11, align 1, !tbaa !128
  %32 = sext i8 %31 to i16
  %33 = getelementptr i8, ptr %14, i64 %indvars.iv
  %34 = load i8, ptr %33, align 1, !tbaa !128
  %35 = zext i8 %34 to i16
  %36 = mul nsw i16 %35, %32
  %37 = add i16 %30, %36
  %38 = load i8, ptr %12, align 1, !tbaa !128
  %39 = sext i8 %38 to i16
  %40 = getelementptr i8, ptr %15, i64 %indvars.iv
  %41 = load i8, ptr %40, align 1, !tbaa !128
  %42 = zext i8 %41 to i16
  %43 = mul nsw i16 %42, %39
  %44 = add i16 %37, %43
  %45 = getelementptr inbounds nuw i16, ptr %.02933.us, i64 %indvars.iv
  store i16 %44, ptr %45, align 2, !tbaa !124
  %indvars.iv.next = add nuw nsw i64 %indvars.iv, 1
  %exitcond.not = icmp eq i64 %indvars.iv.next, %wide.trip.count
  br i1 %exitcond.not, label %._crit_edge.us, label %16, !llvm.loop !684

._crit_edge.us:                                   ; preds = %16
  %46 = getelementptr inbounds nuw i8, ptr %.02933.us, i64 256
  %47 = add nuw nsw i32 %.02834.us, 1
  %exitcond38.not = icmp eq i32 %47, %3
  br i1 %exitcond38.not, label %._crit_edge35, label %.preheader.us, !llvm.loop !685

._crit_edge35:                                    ; preds = %._crit_edge.us, %.preheader.lr.ph, %7
  ret void
}